; Function Attrs: mustprogress uwtable
define void @_ZN12b2ChainShape11CreateChainEPK6b2Vec2iRS1_S3_(ptr nocapture noundef nonnull align 8 dereferenceable(44) %this, ptr nocapture noundef readonly %vertices, i32 noundef %count, ptr nocapture noundef nonnull readonly align 4 dereferenceable(8) %prevVertex, ptr nocapture noundef nonnull readonly align 4 dereferenceable(8) %nextVertex) local_unnamed_addr #1 align 2 {
entry:
  %m_count = getelementptr inbounds i8, ptr %this, i64 24
  store i32 %count, ptr %m_count, align 8
  %mul = shl i32 %count, 3
  %call.i = tail call noundef ptr @_Z15b2Alloc_Defaulti(i32 noundef %mul)
  %m_vertices = getelementptr inbounds i8, ptr %this, i64 16
  store ptr %call.i, ptr %m_vertices, align 8
  %0 = load i32, ptr %m_count, align 8
  %conv5 = sext i32 %0 to i64
  %mul6 = shl nsw i64 %conv5, 3
  tail call void @llvm.memcpy.p0.p0.i64(ptr align 4 %call.i, ptr align 4 %vertices, i64 %mul6, i1 false)
  %m_prevVertex = getelementptr inbounds i8, ptr %this, i64 28
  %1 = load i64, ptr %prevVertex, align 4
  store i64 %1, ptr %m_prevVertex, align 4
  %m_nextVertex = getelementptr inbounds i8, ptr %this, i64 36
  %2 = load i64, ptr %nextVertex, align 4
  store i64 %2, ptr %m_nextVertex, align 4
  ret void
}